; Function Attrs: mustprogress uwtable
define internal fastcc void @_ZN5YosysL21error_on_dpi_functionEPNS_3AST7AstNodeE(ptr noundef %0) unnamed_addr #4 {
  %2 = getelementptr inbounds nuw i8, ptr %0, i64 4
  %3 = load i32, ptr %2, align 4, !tbaa !53
  %4 = icmp eq i32 %3, 5
  br i1 %4, label %5, label %11

5:                                                ; preds = %1
  %6 = getelementptr inbounds nuw i8, ptr %0, i64 232
  %7 = getelementptr inbounds nuw i8, ptr %0, i64 264
  %8 = load i32, ptr %7, align 8, !tbaa !140
  %9 = getelementptr inbounds nuw i8, ptr %0, i64 80
  %10 = load ptr, ptr %9, align 8, !tbaa !13
  tail call void (ptr, i32, ptr, ...) @_ZN5Yosys14log_file_errorERKNSt7__cxx1112basic_stringIcSt11char_traitsIcESaIcEEEiPKcz(ptr noundef nonnull align 8 dereferenceable(32) %6, i32 noundef %8, ptr noundef nonnull @.str.198, ptr noundef %10) #30
  unreachable

11:                                               ; preds = %1
  %12 = getelementptr inbounds nuw i8, ptr %0, i64 8
  %13 = load ptr, ptr %12, align 8, !tbaa !50
  %14 = getelementptr inbounds nuw i8, ptr %0, i64 16
  %15 = load ptr, ptr %14, align 8, !tbaa !50
  %.not11 = icmp eq ptr %13, %15
  br i1 %.not11, label %._crit_edge, label %.lr.ph

._crit_edge:                                      ; preds = %.lr.ph, %11
  ret void

.lr.ph:                                           ; preds = %11, %.lr.ph
  %.sroa.08.012 = phi ptr [ %17, %.lr.ph ], [ %13, %11 ]
  %16 = load ptr, ptr %.sroa.08.012, align 8, !tbaa !44
  tail call fastcc void @_ZN5YosysL21error_on_dpi_functionEPNS_3AST7AstNodeE(ptr noundef %16)
  %17 = getelementptr inbounds nuw i8, ptr %.sroa.08.012, i64 8
  %.not = icmp eq ptr %17, %15
  br i1 %.not, label %._crit_edge, label %.lr.ph
}